; Function Attrs: mustprogress uwtable
define hidden void @_ZNK4cvc58internal6theory11quantifiers19TransitionInference12getVariablesERSt6vectorINS0_12NodeTemplateILb1EEESaIS6_EE(ptr noundef nonnull readonly align 8 captures(none) dereferenceable(320) %0, ptr noundef nonnull align 8 dereferenceable(24) %1) local_unnamed_addr #3 align 2 {
  %3 = getelementptr inbounds nuw i8, ptr %1, i64 8
  %4 = load ptr, ptr %3, align 8, !tbaa !3
  %5 = getelementptr inbounds nuw i8, ptr %0, i64 24
  %6 = load ptr, ptr %5, align 8, !tbaa !3
  %7 = getelementptr inbounds nuw i8, ptr %0, i64 32
  %8 = load ptr, ptr %7, align 8, !tbaa !3
  %9 = load ptr, ptr %1, align 8, !tbaa !3
  %10 = ptrtoint ptr %4 to i64
  %11 = ptrtoint ptr %9 to i64
  %12 = sub i64 %10, %11
  %13 = getelementptr inbounds i8, ptr %9, i64 %12
  tail call void @_ZNSt6vectorIN4cvc58internal12NodeTemplateILb1EEESaIS3_EE15_M_range_insertIN9__gnu_cxx17__normal_iteratorIPKS3_S5_EEEEvNS8_IPS3_S5_EET_SE_St20forward_iterator_tag(ptr noundef nonnull align 8 dereferenceable(24) %1, ptr %13, ptr %6, ptr %8)
  ret void
}